; ModuleID = 'source-C-CXX/27/1486.c'
source_filename = "source-C-CXX/27/1486.c"
target datalayout = "e-m:e-p270:32:32-p271:32:32-p272:64:64-i64:64-f80:128-n8:16:32:64-S128"
target triple = "x86_64-pc-linux-gnu"

@.str = private unnamed_addr constant [4 x i8] c"%d,\00", align 1
@.str.1 = private unnamed_addr constant [3 x i8] c"%d\00", align 1

; Function Attrs: nounwind sspstrong uwtable
define dso_local i32 @main() local_unnamed_addr #0 {
  %1 = alloca [100000 x i8], align 16
  %2 = alloca [1000 x i32], align 16
  %3 = getelementptr inbounds [100000 x i8], [100000 x i8]* %1, i64 0, i64 0
  call void @llvm.lifetime.start.p0i8(i64 100000, i8* nonnull %3) #5
  %4 = bitcast [1000 x i32]* %2 to i8*
  call void @llvm.lifetime.start.p0i8(i64 4000, i8* nonnull %4) #5
  call void @llvm.memset.p0i8.i64(i8* noundef nonnull align 16 dereferenceable(4000) %4, i8 0, i64 4000, i1 false)
  %5 = call i32 (i8*, ...) bitcast (i32 (...)* @gets to i32 (i8*, ...)*)(i8* nonnull %3) #5
  %6 = load i8, i8* %3, align 16, !tbaa !5
  %7 = icmp eq i8 %6, 0
  br i1 %7, label %45, label %8

8:                                                ; preds = %0, %21
  %9 = phi i64 [ %23, %21 ], [ 0, %0 ]
  %10 = phi i32 [ %24, %21 ], [ 0, %0 ]
  %11 = getelementptr inbounds [1000 x i32], [1000 x i32]* %2, i64 0, i64 %9
  %12 = sext i32 %10 to i64
  br label %13

13:                                               ; preds = %8, %17
  %14 = phi i64 [ %12, %8 ], [ %20, %17 ]
  %15 = getelementptr inbounds [100000 x i8], [100000 x i8]* %1, i64 0, i64 %14
  %16 = load i8, i8* %15, align 1, !tbaa !5
  switch i8 %16, label %17 [
    i8 0, label %29
    i8 32, label %21
  ]

17:                                               ; preds = %13
  %18 = load i32, i32* %11, align 4, !tbaa !8
  %19 = add nsw i32 %18, 1
  store i32 %19, i32* %11, align 4, !tbaa !8
  %20 = add i64 %14, 1
  br label %13, !llvm.loop !10

21:                                               ; preds = %13
  %22 = trunc i64 %14 to i32
  %23 = add nuw i64 %9, 1
  %24 = add nsw i32 %22, 1
  %25 = sext i32 %24 to i64
  %26 = getelementptr inbounds [100000 x i8], [100000 x i8]* %1, i64 0, i64 %25
  %27 = load i8, i8* %26, align 1, !tbaa !5
  %28 = icmp eq i8 %27, 0
  br i1 %28, label %29, label %8, !llvm.loop !12

29:                                               ; preds = %21, %13
  %30 = phi i64 [ %9, %13 ], [ %23, %21 ]
  %31 = trunc i64 %30 to i32
  %32 = icmp eq i32 %31, 0
  br i1 %32, label %45, label %33

33:                                               ; preds = %29
  %34 = and i64 %30, 4294967295
  br label %35

35:                                               ; preds = %33, %42
  %36 = phi i64 [ 0, %33 ], [ %43, %42 ]
  %37 = getelementptr inbounds [1000 x i32], [1000 x i32]* %2, i64 0, i64 %36
  %38 = load i32, i32* %37, align 4, !tbaa !8
  %39 = icmp eq i32 %38, 0
  br i1 %39, label %42, label %40

40:                                               ; preds = %35
  %41 = call i32 (i8*, ...) @printf(i8* nonnull dereferenceable(1) getelementptr inbounds ([4 x i8], [4 x i8]* @.str, i64 0, i64 0), i32 %38)
  br label %42

42:                                               ; preds = %35, %40
  %43 = add nuw nsw i64 %36, 1
  %44 = icmp eq i64 %43, %34
  br i1 %44, label %45, label %35, !llvm.loop !13

45:                                               ; preds = %42, %29, %0
  %46 = phi i64 [ 0, %0 ], [ 0, %29 ], [ %34, %42 ]
  %47 = getelementptr inbounds [1000 x i32], [1000 x i32]* %2, i64 0, i64 %46
  %48 = load i32, i32* %47, align 4, !tbaa !8
  %49 = call i32 (i8*, ...) @printf(i8* nonnull dereferenceable(1) getelementptr inbounds ([3 x i8], [3 x i8]* @.str.1, i64 0, i64 0), i32 %48)
  call void @llvm.lifetime.end.p0i8(i64 4000, i8* nonnull %4) #5
  call void @llvm.lifetime.end.p0i8(i64 100000, i8* nonnull %3) #5
  ret i32 0
}

; Function Attrs: argmemonly mustprogress nofree nosync nounwind willreturn
declare void @llvm.lifetime.start.p0i8(i64 immarg, i8* nocapture) #1

; Function Attrs: argmemonly mustprogress nofree nounwind willreturn writeonly
declare void @llvm.memset.p0i8.i64(i8* nocapture writeonly, i8, i64, i1 immarg) #2

declare i32 @gets(...) local_unnamed_addr #3

; Function Attrs: nofree nounwind
declare noundef i32 @printf(i8* nocapture noundef readonly, ...) local_unnamed_addr #4

; Function Attrs: argmemonly mustprogress nofree nosync nounwind willreturn
declare void @llvm.lifetime.end.p0i8(i64 immarg, i8* nocapture) #1


!llvm.module.flags = !{!0, !1, !2, !3}
!llvm.ident = !{!4}

!0 = !{i32 1, !"wchar_size", i32 4}
!1 = !{i32 7, !"PIC Level", i32 2}
!2 = !{i32 7, !"PIE Level", i32 2}
!3 = !{i32 7, !"uwtable", i32 1}
!4 = !{!"clang version 13.0.0"}
!5 = !{!6, !6, i64 0}
!6 = !{!"omnipotent char", !7, i64 0}
!7 = !{!"Simple C/C++ TBAA"}
!8 = !{!9, !9, i64 0}
!9 = !{!"int", !6, i64 0}
!10 = distinct !{!10, !11}
!11 = !{!"llvm.loop.mustprogress"}
!12 = distinct !{!12, !11}
!13 = distinct !{!13, !11}
